target datalayout = "e-m:e-p270:32:32-p271:32:32-p272:64:64-i64:64-i128:128-f80:128-n8:16:32:64-S128"
target triple = "x86_64-pc-linux-gnu"

%struct.PROV_KDF_CTX = type { ptr, ptr, ptr }

@.str.1 = private unnamed_addr constant [57 x i8] c"../openssl/providers/implementations/exchange/kdf_exch.c\00", align 1

; Function Attrs: nounwind uwtable
define internal void @kdf_freectx(ptr noundef %0) #0 {
  %2 = alloca ptr, align 8
  %3 = alloca ptr, align 8
  store ptr %0, ptr %2, align 8, !tbaa !3
  call void @llvm.lifetime.start.p0(i64 8, ptr %3) #4
  %4 = load ptr, ptr %2, align 8, !tbaa !3
  store ptr %4, ptr %3, align 8, !tbaa !3
  %5 = load ptr, ptr %3, align 8, !tbaa !3
  %6 = getelementptr inbounds nuw %struct.PROV_KDF_CTX, ptr %5, i32 0, i32 1
  %7 = load ptr, ptr %6, align 8, !tbaa !19
  call void @EVP_KDF_CTX_free(ptr noundef %7)
  %8 = load ptr, ptr %3, align 8, !tbaa !3
  %9 = getelementptr inbounds nuw %struct.PROV_KDF_CTX, ptr %8, i32 0, i32 2
  %10 = load ptr, ptr %9, align 8, !tbaa !9
  call void @ossl_kdf_data_free(ptr noundef %10)
  %11 = load ptr, ptr %3, align 8, !tbaa !3
  call void @CRYPTO_free(ptr noundef %11, ptr noundef @.str.1, i32 noundef 138)
  call void @llvm.lifetime.end.p0(i64 8, ptr %3) #4
  ret void
}