; Function Attrs: nounwind uwtable
define internal void @kdf_freectx(ptr noundef %0) #0 {
  %2 = getelementptr inbounds nuw i8, ptr %0, i64 8
  %3 = load ptr, ptr %2, align 8, !tbaa !10
  tail call void @EVP_KDF_CTX_free(ptr noundef %3) #3
  %4 = getelementptr inbounds nuw i8, ptr %0, i64 16
  %5 = load ptr, ptr %4, align 8, !tbaa !3
  tail call void @ossl_kdf_data_free(ptr noundef %5) #3
  tail call void @CRYPTO_free(ptr noundef %0, ptr noundef nonnull @.str.1, i32 noundef 138) #3
  ret void
}